; Function Attrs: mustprogress uwtable
define noundef i32 @_Z14CalcAllBoardsNP6boardsP12solvedBoards(ptr noundef %0, ptr noundef %1) local_unnamed_addr #3 {
  store i32 0, ptr getelementptr inbounds nuw (i8, ptr @cparam, i64 24), align 8
  %3 = load i32, ptr %0, align 4
  %4 = icmp sgt i32 %3, 200
  br i1 %4, label %17, label %5

5:                                                ; preds = %2
  store ptr %0, ptr getelementptr inbounds nuw (i8, ptr @cparam, i64 8), align 8
  store ptr %1, ptr getelementptr inbounds nuw (i8, ptr @cparam, i64 16), align 8
  %6 = load i32, ptr %0, align 4
  store i32 %6, ptr @cparam, align 8
  tail call void @_ZN9Scheduler11RegisterRunE7RunModeRK6boards(ptr noundef nonnull align 8 dereferenceable(43416) @scheduler, i32 noundef 1, ptr noundef nonnull align 4 dereferenceable(21604) %0)
  %7 = tail call noundef i32 @_ZN6System11RegisterRunE7RunModeRK6boards(ptr noundef nonnull align 8 dereferenceable(200) @sysdep, i32 noundef 1, ptr noundef nonnull align 4 dereferenceable(21604) %0)
  %8 = getelementptr i8, ptr %1, i64 8
  br label %9

9:                                                ; preds = %5, %9
  %indvars.iv = phi i64 [ 0, %5 ], [ %indvars.iv.next, %9 ]
  %10 = mul nuw nsw i64 %indvars.iv, 216
  %11 = getelementptr i8, ptr %8, i64 %10
  store i32 0, ptr %11, align 4
  %indvars.iv.next = add nuw nsw i64 %indvars.iv, 1
  %exitcond.not = icmp eq i64 %indvars.iv.next, 200
  br i1 %exitcond.not, label %12, label %9, !llvm.loop !10

12:                                               ; preds = %9
  %13 = tail call noundef i32 @_ZN6System10RunThreadsEv(ptr noundef nonnull align 8 dereferenceable(200) @sysdep)
  %.not = icmp eq i32 %13, 1
  br i1 %.not, label %14, label %17

14:                                               ; preds = %12
  %15 = load i32, ptr @cparam, align 8
  store i32 %15, ptr %1, align 4
  %16 = load i32, ptr getelementptr inbounds nuw (i8, ptr @cparam, i64 24), align 8
  %. = tail call i32 @llvm.umax.i32(i32 %16, i32 1)
  br label %17

17:                                               ; preds = %14, %12, %2
  %.0 = phi i32 [ -101, %2 ], [ %13, %12 ], [ %., %14 ]
  ret i32 %.0
}